target datalayout = "e-m:e-p270:32:32-p271:32:32-p272:64:64-i64:64-i128:128-f80:128-n8:16:32:64-S128"
target triple = "x86_64-pc-linux-gnu"

%struct._nfs4_bitmap_info_t = type { ptr, ptr, ptr, ptr, ptr, ptr, ptr, ptr, ptr }

@hf_nfs4_layout_type = internal global i32 0, align 4
@dissect_nfs4_threshold_item.bitmap_info_p = internal global ptr null, align 8
@dissect_nfs4_threshold_item.bitmap_info_default = internal global %struct._nfs4_bitmap_info_t { ptr null, ptr null, ptr null, ptr @hf_nfs4_mdsthreshold_hint_mask, ptr null, ptr null, ptr @hf_nfs4_mdsthreshold_mask_count, ptr @hf_nfs4_bitmap_data, ptr null }, align 8

; Function Attrs: null_pointer_is_valid sspstrong uwtable
define internal i32 @dissect_nfs4_threshold_item(ptr noundef %0, i32 noundef %1, ptr noundef %2, ptr noundef %3, ptr noundef %4) #0 {
  %6 = alloca ptr, align 8
  %7 = alloca i32, align 4
  %8 = alloca ptr, align 8
  %9 = alloca ptr, align 8
  %10 = alloca ptr, align 8
  %11 = alloca i32, align 4
  store ptr %0, ptr %6, align 8
  store i32 %1, ptr %7, align 4
  store ptr %2, ptr %8, align 8
  store ptr %3, ptr %9, align 8
  store ptr %4, ptr %10, align 8
  call void @llvm.lifetime.start.p0(i64 4, ptr %11) #16
  %12 = load ptr, ptr %6, align 8
  %13 = load i32, ptr %7, align 4
  %14 = call i32 @tvb_get_ntohl(ptr noundef %12, i32 noundef %13)
  store i32 %14, ptr %11, align 4
  %15 = load ptr, ptr %6, align 8
  %16 = load ptr, ptr %9, align 8
  %17 = load i32, ptr @hf_nfs4_layout_type, align 4
  %18 = load i32, ptr %7, align 4
  %19 = call i32 @dissect_rpc_uint32(ptr noundef %15, ptr noundef %16, i32 noundef %17, i32 noundef %18)
  store i32 %19, ptr %7, align 4
  %20 = load i32, ptr %11, align 4
  switch i32 %20, label %22 [
    i32 1, label %21
  ]

21:                                               ; preds = %5
  store ptr @dissect_nfs4_threshold_item.bitmap_info_files, ptr @dissect_nfs4_threshold_item.bitmap_info_p, align 8
  br label %23

22:                                               ; preds = %5
  store ptr @dissect_nfs4_threshold_item.bitmap_info_default, ptr @dissect_nfs4_threshold_item.bitmap_info_p, align 8
  br label %23

23:                                               ; preds = %22, %21
  %24 = load ptr, ptr %6, align 8
  %25 = load i32, ptr %7, align 4
  %26 = load ptr, ptr %8, align 8
  %27 = load ptr, ptr %9, align 8
  %28 = load ptr, ptr %10, align 8
  %29 = load ptr, ptr @dissect_nfs4_threshold_item.bitmap_info_p, align 8
  %30 = call i32 @dissect_nfs4_bitmap(ptr noundef %24, i32 noundef %25, ptr noundef %26, ptr noundef %27, ptr noundef %28, ptr noundef %29, i32 noundef 1, ptr noundef null)
  call void @llvm.lifetime.end.p0(i64 4, ptr %11) #16
  ret i32 %30
}