; Function Attrs: null_pointer_is_valid sspstrong uwtable
define internal i32 @dissect_nfs4_threshold_item(ptr noundef %0, i32 noundef %1, ptr noundef %2, ptr noundef %3, ptr noundef %4) #0 {
  %6 = tail call i32 @tvb_get_ntohl(ptr noundef %0, i32 noundef %1)
  %7 = load i32, ptr @hf_nfs4_layout_type, align 4
  %8 = tail call i32 @dissect_rpc_uint32(ptr noundef %0, ptr noundef %3, i32 noundef %7, i32 noundef %1)
  %cond = icmp eq i32 %6, 1
  %dissect_nfs4_threshold_item.bitmap_info_files.dissect_nfs4_threshold_item.bitmap_info_default = select i1 %cond, ptr @dissect_nfs4_threshold_item.bitmap_info_files, ptr @dissect_nfs4_threshold_item.bitmap_info_default
  store ptr %dissect_nfs4_threshold_item.bitmap_info_files.dissect_nfs4_threshold_item.bitmap_info_default, ptr @dissect_nfs4_threshold_item.bitmap_info_p, align 8
  %9 = tail call fastcc i32 @dissect_nfs4_bitmap(ptr noundef %0, i32 noundef %8, ptr noundef %2, ptr noundef %3, ptr noundef %4, ptr noundef nonnull %dissect_nfs4_threshold_item.bitmap_info_files.dissect_nfs4_threshold_item.bitmap_info_default, i32 noundef 1, ptr noundef null)
  ret i32 %9
}